
/home/daichengkai/ics2020/am-kernels/tests/cpu-tests/build/bubble-sort-riscv64-nemu.elf:     file format elf64-littleriscv


Disassembly of section .text:

0000000080100000 <_start>:
    80100000:	00000413          	li	s0,0
    80100004:	00009117          	auipc	sp,0x9
    80100008:	ffc10113          	addi	sp,sp,-4 # 80109000 <_end>
    8010000c:	168000ef          	jal	ra,80100174 <_trm_init>

0000000080100010 <check>:
    80100010:	00050463          	beqz	a0,80100018 <check+0x8>
    80100014:	00008067          	ret
    80100018:	ff010113          	addi	sp,sp,-16
    8010001c:	00100513          	li	a0,1
    80100020:	00113423          	sd	ra,8(sp)
    80100024:	144000ef          	jal	ra,80100168 <halt>

0000000080100028 <main>:
    80100028:	fd010113          	addi	sp,sp,-48
    8010002c:	02813023          	sd	s0,32(sp)
    80100030:	02113423          	sd	ra,40(sp)
    80100034:	00913c23          	sd	s1,24(sp)
    80100038:	01213823          	sd	s2,16(sp)
    8010003c:	01313423          	sd	s3,8(sp)
    80100040:	01413023          	sd	s4,0(sp)
    80100044:	01300793          	li	a5,19
    80100048:	00000417          	auipc	s0,0x0
    8010004c:	15840413          	addi	s0,s0,344 # 801001a0 <a>
    80100050:	00000517          	auipc	a0,0x0
    80100054:	15450513          	addi	a0,a0,340 # 801001a4 <a+0x4>
    80100058:	04078063          	beqz	a5,80100098 <main+0x70>
    8010005c:	fff7859b          	addiw	a1,a5,-1
    80100060:	02059613          	slli	a2,a1,0x20
    80100064:	01e65613          	srli	a2,a2,0x1e
    80100068:	00000797          	auipc	a5,0x0
    8010006c:	13878793          	addi	a5,a5,312 # 801001a0 <a>
    80100070:	00a60633          	add	a2,a2,a0
    80100074:	0007a703          	lw	a4,0(a5)
    80100078:	0047a683          	lw	a3,4(a5)
    8010007c:	00e6d663          	bge	a3,a4,80100088 <main+0x60>
    80100080:	00d7a023          	sw	a3,0(a5)
    80100084:	00e7a223          	sw	a4,4(a5)
    80100088:	00478793          	addi	a5,a5,4
    8010008c:	fec794e3          	bne	a5,a2,80100074 <main+0x4c>
    80100090:	0005879b          	sext.w	a5,a1
    80100094:	fc0794e3          	bnez	a5,8010005c <main+0x34>
    80100098:	00000917          	auipc	s2,0x0
    8010009c:	10890913          	addi	s2,s2,264 # 801001a0 <a>
    801000a0:	00090993          	mv	s3,s2
    801000a4:	00000493          	li	s1,0
    801000a8:	01400a13          	li	s4,20
    801000ac:	0009a503          	lw	a0,0(s3)
    801000b0:	00498993          	addi	s3,s3,4
    801000b4:	40950533          	sub	a0,a0,s1
    801000b8:	00153513          	seqz	a0,a0
    801000bc:	0014849b          	addiw	s1,s1,1
    801000c0:	f51ff0ef          	jal	ra,80100010 <check>
    801000c4:	ff4494e3          	bne	s1,s4,801000ac <main+0x84>
    801000c8:	00100513          	li	a0,1
    801000cc:	f45ff0ef          	jal	ra,80100010 <check>
    801000d0:	01300793          	li	a5,19
    801000d4:	00000517          	auipc	a0,0x0
    801000d8:	0d050513          	addi	a0,a0,208 # 801001a4 <a+0x4>
    801000dc:	02078e63          	beqz	a5,80100118 <main+0xf0>
    801000e0:	fff7859b          	addiw	a1,a5,-1
    801000e4:	02059613          	slli	a2,a1,0x20
    801000e8:	01e65613          	srli	a2,a2,0x1e
    801000ec:	00a60633          	add	a2,a2,a0
    801000f0:	00040793          	mv	a5,s0
    801000f4:	0007a703          	lw	a4,0(a5)
    801000f8:	0047a683          	lw	a3,4(a5)
    801000fc:	00e6d663          	bge	a3,a4,80100108 <main+0xe0>
    80100100:	00d7a023          	sw	a3,0(a5)
    80100104:	00e7a223          	sw	a4,4(a5)
    80100108:	00478793          	addi	a5,a5,4
    8010010c:	fec794e3          	bne	a5,a2,801000f4 <main+0xcc>
    80100110:	0005879b          	sext.w	a5,a1
    80100114:	fc0796e3          	bnez	a5,801000e0 <main+0xb8>
    80100118:	00000413          	li	s0,0
    8010011c:	01400493          	li	s1,20
    80100120:	00092503          	lw	a0,0(s2)
    80100124:	00490913          	addi	s2,s2,4
    80100128:	40850533          	sub	a0,a0,s0
    8010012c:	00153513          	seqz	a0,a0
    80100130:	0014041b          	addiw	s0,s0,1
    80100134:	eddff0ef          	jal	ra,80100010 <check>
    80100138:	fe9414e3          	bne	s0,s1,80100120 <main+0xf8>
    8010013c:	00100513          	li	a0,1
    80100140:	ed1ff0ef          	jal	ra,80100010 <check>
    80100144:	02813083          	ld	ra,40(sp)
    80100148:	02013403          	ld	s0,32(sp)
    8010014c:	01813483          	ld	s1,24(sp)
    80100150:	01013903          	ld	s2,16(sp)
    80100154:	00813983          	ld	s3,8(sp)
    80100158:	00013a03          	ld	s4,0(sp)
    8010015c:	00000513          	li	a0,0
    80100160:	03010113          	addi	sp,sp,48
    80100164:	00008067          	ret

0000000080100168 <halt>:
    80100168:	00050513          	mv	a0,a0
    8010016c:	0000006b          	0x6b
    80100170:	0000006f          	j	80100170 <halt+0x8>

0000000080100174 <_trm_init>:
    80100174:	ff010113          	addi	sp,sp,-16
    80100178:	00000517          	auipc	a0,0x0
    8010017c:	02050513          	addi	a0,a0,32 # 80100198 <mainargs>
    80100180:	00113423          	sd	ra,8(sp)
    80100184:	ea5ff0ef          	jal	ra,80100028 <main>
    80100188:	00050513          	mv	a0,a0
    8010018c:	0000006b          	0x6b
    80100190:	0000006f          	j	80100190 <_trm_init+0x1c>
