
/home/daichengkai/ics2020/am-kernels/tests/cpu-tests/build/load-store-riscv64-nemu.elf:     file format elf64-littleriscv


Disassembly of section .text:

0000000080100000 <_start>:
    80100000:	00000413          	li	s0,0
    80100004:	00009117          	auipc	sp,0x9
    80100008:	ffc10113          	addi	sp,sp,-4 # 80109000 <_end>
    8010000c:	1e0000ef          	jal	ra,801001ec <_trm_init>

0000000080100010 <check>:
    80100010:	00050463          	beqz	a0,80100018 <check+0x8>
    80100014:	00008067          	ret
    80100018:	ff010113          	addi	sp,sp,-16
    8010001c:	00100513          	li	a0,1
    80100020:	00113423          	sd	ra,8(sp)
    80100024:	1bc000ef          	jal	ra,801001e0 <halt>

0000000080100028 <main>:
    80100028:	fd010113          	addi	sp,sp,-48
    8010002c:	01313423          	sd	s3,8(sp)
    80100030:	00000997          	auipc	s3,0x0
    80100034:	23898993          	addi	s3,s3,568 # 80100268 <mem>
    80100038:	02813023          	sd	s0,32(sp)
    8010003c:	00913c23          	sd	s1,24(sp)
    80100040:	01213823          	sd	s2,16(sp)
    80100044:	01413023          	sd	s4,0(sp)
    80100048:	02113423          	sd	ra,40(sp)
    8010004c:	00000917          	auipc	s2,0x0
    80100050:	1cc90913          	addi	s2,s2,460 # 80100218 <lh_ans>
    80100054:	00000497          	auipc	s1,0x0
    80100058:	22448493          	addi	s1,s1,548 # 80100278 <sh_ans>
    8010005c:	00098a13          	mv	s4,s3
    80100060:	00098413          	mv	s0,s3
    80100064:	00041503          	lh	a0,0(s0)
    80100068:	00092783          	lw	a5,0(s2)
    8010006c:	00240413          	addi	s0,s0,2
    80100070:	00490913          	addi	s2,s2,4
    80100074:	40f50533          	sub	a0,a0,a5
    80100078:	00153513          	seqz	a0,a0
    8010007c:	f95ff0ef          	jal	ra,80100010 <check>
    80100080:	fe9412e3          	bne	s0,s1,80100064 <main+0x3c>
    80100084:	00000917          	auipc	s2,0x0
    80100088:	1b490913          	addi	s2,s2,436 # 80100238 <lhu_ans>
    8010008c:	00000417          	auipc	s0,0x0
    80100090:	1dc40413          	addi	s0,s0,476 # 80100268 <mem>
    80100094:	00045503          	lhu	a0,0(s0)
    80100098:	00092783          	lw	a5,0(s2)
    8010009c:	00240413          	addi	s0,s0,2
    801000a0:	00490913          	addi	s2,s2,4
    801000a4:	40f50533          	sub	a0,a0,a5
    801000a8:	00153513          	seqz	a0,a0
    801000ac:	f65ff0ef          	jal	ra,80100010 <check>
    801000b0:	fe9412e3          	bne	s0,s1,80100094 <main+0x6c>
    801000b4:	002a4703          	lbu	a4,2(s4)
    801000b8:	001a4683          	lbu	a3,1(s4)
    801000bc:	003a4783          	lbu	a5,3(s4)
    801000c0:	004a4503          	lbu	a0,4(s4)
    801000c4:	00871713          	slli	a4,a4,0x8
    801000c8:	00000417          	auipc	s0,0x0
    801000cc:	19040413          	addi	s0,s0,400 # 80100258 <lwlr_ans>
    801000d0:	00d76733          	or	a4,a4,a3
    801000d4:	01079793          	slli	a5,a5,0x10
    801000d8:	00e7e7b3          	or	a5,a5,a4
    801000dc:	01851513          	slli	a0,a0,0x18
    801000e0:	00042703          	lw	a4,0(s0)
    801000e4:	00f56533          	or	a0,a0,a5
    801000e8:	0005051b          	sext.w	a0,a0
    801000ec:	40a70533          	sub	a0,a4,a0
    801000f0:	00153513          	seqz	a0,a0
    801000f4:	f1dff0ef          	jal	ra,80100010 <check>
    801000f8:	006a4703          	lbu	a4,6(s4)
    801000fc:	005a4683          	lbu	a3,5(s4)
    80100100:	007a4783          	lbu	a5,7(s4)
    80100104:	008a4503          	lbu	a0,8(s4)
    80100108:	00871713          	slli	a4,a4,0x8
    8010010c:	00d76733          	or	a4,a4,a3
    80100110:	01079793          	slli	a5,a5,0x10
    80100114:	00e7e7b3          	or	a5,a5,a4
    80100118:	01851513          	slli	a0,a0,0x18
    8010011c:	00442703          	lw	a4,4(s0)
    80100120:	00f56533          	or	a0,a0,a5
    80100124:	0005051b          	sext.w	a0,a0
    80100128:	40a70533          	sub	a0,a4,a0
    8010012c:	00153513          	seqz	a0,a0
    80100130:	ee1ff0ef          	jal	ra,80100010 <check>
    80100134:	00aa4703          	lbu	a4,10(s4)
    80100138:	009a4683          	lbu	a3,9(s4)
    8010013c:	00ba4783          	lbu	a5,11(s4)
    80100140:	00ca4503          	lbu	a0,12(s4)
    80100144:	00871713          	slli	a4,a4,0x8
    80100148:	00d76733          	or	a4,a4,a3
    8010014c:	01079793          	slli	a5,a5,0x10
    80100150:	00e7e7b3          	or	a5,a5,a4
    80100154:	01851513          	slli	a0,a0,0x18
    80100158:	00842703          	lw	a4,8(s0)
    8010015c:	00f56533          	or	a0,a0,a5
    80100160:	0005051b          	sext.w	a0,a0
    80100164:	40a70533          	sub	a0,a4,a0
    80100168:	00153513          	seqz	a0,a0
    8010016c:	00100a13          	li	s4,1
    80100170:	ea1ff0ef          	jal	ra,80100010 <check>
    80100174:	00000917          	auipc	s2,0x0
    80100178:	10490913          	addi	s2,s2,260 # 80100278 <sh_ans>
    8010017c:	00000417          	auipc	s0,0x0
    80100180:	0ec40413          	addi	s0,s0,236 # 80100268 <mem>
    80100184:	413a09bb          	subw	s3,s4,s3
    80100188:	008987bb          	addw	a5,s3,s0
    8010018c:	00fa17bb          	sllw	a5,s4,a5
    80100190:	00092503          	lw	a0,0(s2)
    80100194:	fff7c793          	not	a5,a5
    80100198:	03079793          	slli	a5,a5,0x30
    8010019c:	0307d793          	srli	a5,a5,0x30
    801001a0:	40f50533          	sub	a0,a0,a5
    801001a4:	00f41023          	sh	a5,0(s0)
    801001a8:	00153513          	seqz	a0,a0
    801001ac:	00240413          	addi	s0,s0,2
    801001b0:	e61ff0ef          	jal	ra,80100010 <check>
    801001b4:	00490913          	addi	s2,s2,4
    801001b8:	fc9418e3          	bne	s0,s1,80100188 <main+0x160>
    801001bc:	02813083          	ld	ra,40(sp)
    801001c0:	02013403          	ld	s0,32(sp)
    801001c4:	01813483          	ld	s1,24(sp)
    801001c8:	01013903          	ld	s2,16(sp)
    801001cc:	00813983          	ld	s3,8(sp)
    801001d0:	00013a03          	ld	s4,0(sp)
    801001d4:	00000513          	li	a0,0
    801001d8:	03010113          	addi	sp,sp,48
    801001dc:	00008067          	ret

00000000801001e0 <halt>:
    801001e0:	00050513          	mv	a0,a0
    801001e4:	0000006b          	0x6b
    801001e8:	0000006f          	j	801001e8 <halt+0x8>

00000000801001ec <_trm_init>:
    801001ec:	ff010113          	addi	sp,sp,-16
    801001f0:	00000517          	auipc	a0,0x0
    801001f4:	02050513          	addi	a0,a0,32 # 80100210 <mainargs>
    801001f8:	00113423          	sd	ra,8(sp)
    801001fc:	e2dff0ef          	jal	ra,80100028 <main>
    80100200:	00050513          	mv	a0,a0
    80100204:	0000006b          	0x6b
    80100208:	0000006f          	j	80100208 <_trm_init+0x1c>
