
/home/daichengkai/ics2020/am-kernels/tests/cpu-tests/build/matrix-mul-riscv64-nemu.elf:     file format elf64-littleriscv


Disassembly of section .text:

0000000080100000 <_start>:
    80100000:	00000413          	li	s0,0
    80100004:	00009117          	auipc	sp,0x9
    80100008:	ffc10113          	addi	sp,sp,-4 # 80109000 <_end>
    8010000c:	138000ef          	jal	ra,80100144 <_trm_init>

0000000080100010 <check>:
    80100010:	00050463          	beqz	a0,80100018 <check+0x8>
    80100014:	00008067          	ret
    80100018:	ff010113          	addi	sp,sp,-16
    8010001c:	00100513          	li	a0,1
    80100020:	00113423          	sd	ra,8(sp)
    80100024:	114000ef          	jal	ra,80100138 <halt>

0000000080100028 <main>:
    80100028:	fb010113          	addi	sp,sp,-80
    8010002c:	02913c23          	sd	s1,56(sp)
    80100030:	03213823          	sd	s2,48(sp)
    80100034:	03313423          	sd	s3,40(sp)
    80100038:	03413023          	sd	s4,32(sp)
    8010003c:	01513c23          	sd	s5,24(sp)
    80100040:	01613823          	sd	s6,16(sp)
    80100044:	04113423          	sd	ra,72(sp)
    80100048:	04813023          	sd	s0,64(sp)
    8010004c:	01713423          	sd	s7,8(sp)
    80100050:	01813023          	sd	s8,0(sp)
    80100054:	00000497          	auipc	s1,0x0
    80100058:	11c48493          	addi	s1,s1,284 # 80100170 <a>
    8010005c:	00000a17          	auipc	s4,0x0
    80100060:	5c4a0a13          	addi	s4,s4,1476 # 80100620 <c>
    80100064:	00000997          	auipc	s3,0x0
    80100068:	29c98993          	addi	s3,s3,668 # 80100300 <ans>
    8010006c:	00000b17          	auipc	s6,0x0
    80100070:	294b0b13          	addi	s6,s6,660 # 80100300 <ans>
    80100074:	00000917          	auipc	s2,0x0
    80100078:	5d490913          	addi	s2,s2,1492 # 80100648 <c+0x28>
    8010007c:	00000a97          	auipc	s5,0x0
    80100080:	5a4a8a93          	addi	s5,s5,1444 # 80100620 <c>
    80100084:	000a8613          	mv	a2,s5
    80100088:	00098c13          	mv	s8,s3
    8010008c:	000a0b93          	mv	s7,s4
    80100090:	e7060413          	addi	s0,a2,-400
    80100094:	00048713          	mv	a4,s1
    80100098:	00000513          	li	a0,0
    8010009c:	00072783          	lw	a5,0(a4)
    801000a0:	00042683          	lw	a3,0(s0)
    801000a4:	02840413          	addi	s0,s0,40
    801000a8:	00470713          	addi	a4,a4,4
    801000ac:	02d787bb          	mulw	a5,a5,a3
    801000b0:	00a7853b          	addw	a0,a5,a0
    801000b4:	fec414e3          	bne	s0,a2,8010009c <main+0x74>
    801000b8:	000c2783          	lw	a5,0(s8)
    801000bc:	00aba023          	sw	a0,0(s7)
    801000c0:	004c0c13          	addi	s8,s8,4
    801000c4:	40a78533          	sub	a0,a5,a0
    801000c8:	00153513          	seqz	a0,a0
    801000cc:	f45ff0ef          	jal	ra,80100010 <check>
    801000d0:	00100513          	li	a0,1
    801000d4:	f3dff0ef          	jal	ra,80100010 <check>
    801000d8:	00440613          	addi	a2,s0,4
    801000dc:	004b8b93          	addi	s7,s7,4
    801000e0:	fac918e3          	bne	s2,a2,80100090 <main+0x68>
    801000e4:	00100513          	li	a0,1
    801000e8:	02848493          	addi	s1,s1,40
    801000ec:	f25ff0ef          	jal	ra,80100010 <check>
    801000f0:	028a0a13          	addi	s4,s4,40
    801000f4:	02898993          	addi	s3,s3,40
    801000f8:	f96496e3          	bne	s1,s6,80100084 <main+0x5c>
    801000fc:	00100513          	li	a0,1
    80100100:	f11ff0ef          	jal	ra,80100010 <check>
    80100104:	04813083          	ld	ra,72(sp)
    80100108:	04013403          	ld	s0,64(sp)
    8010010c:	03813483          	ld	s1,56(sp)
    80100110:	03013903          	ld	s2,48(sp)
    80100114:	02813983          	ld	s3,40(sp)
    80100118:	02013a03          	ld	s4,32(sp)
    8010011c:	01813a83          	ld	s5,24(sp)
    80100120:	01013b03          	ld	s6,16(sp)
    80100124:	00813b83          	ld	s7,8(sp)
    80100128:	00013c03          	ld	s8,0(sp)
    8010012c:	00000513          	li	a0,0
    80100130:	05010113          	addi	sp,sp,80
    80100134:	00008067          	ret

0000000080100138 <halt>:
    80100138:	00050513          	mv	a0,a0
    8010013c:	0000006b          	0x6b
    80100140:	0000006f          	j	80100140 <halt+0x8>

0000000080100144 <_trm_init>:
    80100144:	ff010113          	addi	sp,sp,-16
    80100148:	00000517          	auipc	a0,0x0
    8010014c:	02050513          	addi	a0,a0,32 # 80100168 <mainargs>
    80100150:	00113423          	sd	ra,8(sp)
    80100154:	ed5ff0ef          	jal	ra,80100028 <main>
    80100158:	00050513          	mv	a0,a0
    8010015c:	0000006b          	0x6b
    80100160:	0000006f          	j	80100160 <_trm_init+0x1c>
