
/home/daichengkai/ics2020/am-kernels/tests/cpu-tests/build/string-riscv64-nemu.elf:     file format elf64-littleriscv


Disassembly of section .text:

0000000080100000 <_start>:
    80100000:	00000413          	li	s0,0
    80100004:	00009117          	auipc	sp,0x9
    80100008:	ffc10113          	addi	sp,sp,-4 # 80109000 <_end>
    8010000c:	120000ef          	jal	ra,8010012c <_trm_init>

0000000080100010 <check>:
    80100010:	00050463          	beqz	a0,80100018 <check+0x8>
    80100014:	00008067          	ret
    80100018:	ff010113          	addi	sp,sp,-16
    8010001c:	00100513          	li	a0,1
    80100020:	00113423          	sd	ra,8(sp)
    80100024:	0fc000ef          	jal	ra,80100120 <halt>

0000000080100028 <main>:
    80100028:	ff010113          	addi	sp,sp,-16
    8010002c:	00813023          	sd	s0,0(sp)
    80100030:	00000417          	auipc	s0,0x0
    80100034:	1c840413          	addi	s0,s0,456 # 801001f8 <s>
    80100038:	01043583          	ld	a1,16(s0)
    8010003c:	00043503          	ld	a0,0(s0)
    80100040:	00113423          	sd	ra,8(sp)
    80100044:	118000ef          	jal	ra,8010015c <strcmp>
    80100048:	00153513          	seqz	a0,a0
    8010004c:	fc5ff0ef          	jal	ra,80100010 <check>
    80100050:	00843583          	ld	a1,8(s0)
    80100054:	00043503          	ld	a0,0(s0)
    80100058:	104000ef          	jal	ra,8010015c <strcmp>
    8010005c:	01f5551b          	srliw	a0,a0,0x1f
    80100060:	fb1ff0ef          	jal	ra,80100010 <check>
    80100064:	00843583          	ld	a1,8(s0)
    80100068:	00043503          	ld	a0,0(s0)
    8010006c:	00158593          	addi	a1,a1,1
    80100070:	00150513          	addi	a0,a0,1
    80100074:	0e8000ef          	jal	ra,8010015c <strcmp>
    80100078:	01f5551b          	srliw	a0,a0,0x1f
    8010007c:	f95ff0ef          	jal	ra,80100010 <check>
    80100080:	00843583          	ld	a1,8(s0)
    80100084:	00043503          	ld	a0,0(s0)
    80100088:	00258593          	addi	a1,a1,2
    8010008c:	00250513          	addi	a0,a0,2
    80100090:	0cc000ef          	jal	ra,8010015c <strcmp>
    80100094:	01f5551b          	srliw	a0,a0,0x1f
    80100098:	f79ff0ef          	jal	ra,80100010 <check>
    8010009c:	00843583          	ld	a1,8(s0)
    801000a0:	00043503          	ld	a0,0(s0)
    801000a4:	00358593          	addi	a1,a1,3
    801000a8:	00350513          	addi	a0,a0,3
    801000ac:	0b0000ef          	jal	ra,8010015c <strcmp>
    801000b0:	01f5551b          	srliw	a0,a0,0x1f
    801000b4:	f5dff0ef          	jal	ra,80100010 <check>
    801000b8:	00000597          	auipc	a1,0x0
    801000bc:	17058593          	addi	a1,a1,368 # 80100228 <str1>
    801000c0:	00000517          	auipc	a0,0x0
    801000c4:	17050513          	addi	a0,a0,368 # 80100230 <str>
    801000c8:	084000ef          	jal	ra,8010014c <strcpy>
    801000cc:	01843583          	ld	a1,24(s0)
    801000d0:	084000ef          	jal	ra,80100154 <strcat>
    801000d4:	02043583          	ld	a1,32(s0)
    801000d8:	084000ef          	jal	ra,8010015c <strcmp>
    801000dc:	00153513          	seqz	a0,a0
    801000e0:	f31ff0ef          	jal	ra,80100010 <check>
    801000e4:	00500613          	li	a2,5
    801000e8:	02300593          	li	a1,35
    801000ec:	00000517          	auipc	a0,0x0
    801000f0:	14450513          	addi	a0,a0,324 # 80100230 <str>
    801000f4:	070000ef          	jal	ra,80100164 <memset>
    801000f8:	02843583          	ld	a1,40(s0)
    801000fc:	00500613          	li	a2,5
    80100100:	06c000ef          	jal	ra,8010016c <memcmp>
    80100104:	00153513          	seqz	a0,a0
    80100108:	f09ff0ef          	jal	ra,80100010 <check>
    8010010c:	00813083          	ld	ra,8(sp)
    80100110:	00013403          	ld	s0,0(sp)
    80100114:	00000513          	li	a0,0
    80100118:	01010113          	addi	sp,sp,16
    8010011c:	00008067          	ret

0000000080100120 <halt>:
    80100120:	00050513          	mv	a0,a0
    80100124:	0000006b          	0x6b
    80100128:	0000006f          	j	80100128 <halt+0x8>

000000008010012c <_trm_init>:
    8010012c:	ff010113          	addi	sp,sp,-16
    80100130:	00000517          	auipc	a0,0x0
    80100134:	0c050513          	addi	a0,a0,192 # 801001f0 <mainargs>
    80100138:	00113423          	sd	ra,8(sp)
    8010013c:	eedff0ef          	jal	ra,80100028 <main>
    80100140:	00050513          	mv	a0,a0
    80100144:	0000006b          	0x6b
    80100148:	0000006f          	j	80100148 <_trm_init+0x1c>

000000008010014c <strcpy>:
    8010014c:	00000513          	li	a0,0
    80100150:	00008067          	ret

0000000080100154 <strcat>:
    80100154:	00000513          	li	a0,0
    80100158:	00008067          	ret

000000008010015c <strcmp>:
    8010015c:	00000513          	li	a0,0
    80100160:	00008067          	ret

0000000080100164 <memset>:
    80100164:	00000513          	li	a0,0
    80100168:	00008067          	ret

000000008010016c <memcmp>:
    8010016c:	00000513          	li	a0,0
    80100170:	00008067          	ret
